target datalayout = "e-m:e-p270:32:32-p271:32:32-p272:64:64-i64:64-i128:128-f80:128-n8:16:32:64-S128"
target triple = "x86_64-pc-linux-gnu"

%struct.AVOption = type { ptr, ptr, i32, i32, %union.anon, double, double, i32, ptr }
%union.anon = type { i64 }

@.str.6 = private unnamed_addr constant [52 x i8] c"The value for option '%s' is not a channel layout.\0A\00", align 1

; Function Attrs: nounwind uwtable
define i32 @av_opt_get_chlayout(ptr noundef %0, ptr noundef %1, i32 noundef %2, ptr noundef %3) #0 {
  %5 = alloca i32, align 4
  %6 = alloca ptr, align 8
  %7 = alloca ptr, align 8
  %8 = alloca i32, align 4
  %9 = alloca ptr, align 8
  %10 = alloca ptr, align 8
  %11 = alloca ptr, align 8
  %12 = alloca ptr, align 8
  %13 = alloca i32, align 4
  store ptr %0, ptr %6, align 8, !tbaa !4
  store ptr %1, ptr %7, align 8, !tbaa !19
  store i32 %2, ptr %8, align 4, !tbaa !20
  store ptr %3, ptr %9, align 8, !tbaa !69
  call void @llvm.lifetime.start.p0(i64 8, ptr %10) #11
  call void @llvm.lifetime.start.p0(i64 8, ptr %11) #11
  call void @llvm.lifetime.start.p0(i64 8, ptr %12) #11
  %14 = load ptr, ptr %6, align 8, !tbaa !4
  %15 = load ptr, ptr %7, align 8, !tbaa !19
  %16 = load i32, ptr %8, align 4, !tbaa !20
  %17 = call ptr @av_opt_find2(ptr noundef %14, ptr noundef %15, ptr noundef null, i32 noundef 0, i32 noundef %16, ptr noundef %11)
  store ptr %17, ptr %12, align 8, !tbaa !8
  %18 = load ptr, ptr %12, align 8, !tbaa !8
  %19 = icmp ne ptr %18, null
  br i1 %19, label %20, label %23

20:                                               ; preds = %4
  %21 = load ptr, ptr %11, align 8, !tbaa !4
  %22 = icmp ne ptr %21, null
  br i1 %22, label %24, label %23

23:                                               ; preds = %20, %4
  store i32 -1414549496, ptr %5, align 4
  store i32 1, ptr %13, align 4
  br label %42

24:                                               ; preds = %20
  %25 = load ptr, ptr %12, align 8, !tbaa !8
  %26 = getelementptr inbounds nuw %struct.AVOption, ptr %25, i32 0, i32 3
  %27 = load i32, ptr %26, align 4, !tbaa !21
  %28 = icmp ne i32 %27, 19
  br i1 %28, label %29, label %32

29:                                               ; preds = %24
  %30 = load ptr, ptr %6, align 8, !tbaa !4
  %31 = load ptr, ptr %7, align 8, !tbaa !19
  call void (ptr, i32, ptr, ...) @av_log(ptr noundef %30, i32 noundef 16, ptr noundef @.str.6, ptr noundef %31)
  store i32 -22, ptr %5, align 4
  store i32 1, ptr %13, align 4
  br label %42

32:                                               ; preds = %24
  %33 = load ptr, ptr %11, align 8, !tbaa !4
  %34 = load ptr, ptr %12, align 8, !tbaa !8
  %35 = getelementptr inbounds nuw %struct.AVOption, ptr %34, i32 0, i32 2
  %36 = load i32, ptr %35, align 8, !tbaa !34
  %37 = sext i32 %36 to i64
  %38 = getelementptr inbounds i8, ptr %33, i64 %37
  store ptr %38, ptr %10, align 8, !tbaa !4
  %39 = load ptr, ptr %9, align 8, !tbaa !69
  %40 = load ptr, ptr %10, align 8, !tbaa !4
  %41 = call i32 @av_channel_layout_copy(ptr noundef %39, ptr noundef %40)
  store i32 %41, ptr %5, align 4
  store i32 1, ptr %13, align 4
  br label %42

42:                                               ; preds = %32, %29, %23
  call void @llvm.lifetime.end.p0(i64 8, ptr %12) #11
  call void @llvm.lifetime.end.p0(i64 8, ptr %11) #11
  call void @llvm.lifetime.end.p0(i64 8, ptr %10) #11
  %43 = load i32, ptr %5, align 4
  ret i32 %43
}